target datalayout = "e-m:e-p270:32:32-p271:32:32-p272:64:64-i64:64-i128:128-f80:128-n8:16:32:64-S128"
target triple = "x86_64-pc-linux-gnu"

%struct.AVFilterContext = type { ptr, ptr, ptr, ptr, ptr, i32, ptr, ptr, i32, ptr, ptr, i32, i32, ptr, ptr, ptr, ptr, i32, ptr, i32, i32 }
%struct.AudioDRCContext = type { ptr, double, double, ptr, double, double, i32, i32, i32, float, ptr, ptr, ptr, ptr, ptr, ptr, ptr, ptr, ptr, ptr, ptr, ptr, ptr, %struct.AVChannelLayout, ptr, ptr, ptr, ptr, ptr, [7 x double] }
%struct.AVChannelLayout = type { i32, i32, %union.anon.1, ptr }
%union.anon.1 = type { i64 }

@var_names = internal constant [8 x ptr] [ptr @.str.3, ptr @.str.4, ptr @.str.5, ptr @.str.6, ptr @.str.7, ptr @.str.8, ptr @.str.9, ptr null], align 16

; Function Attrs: nounwind uwtable
define internal i32 @process_command(ptr noundef %0, ptr noundef %1, ptr noundef %2, ptr noundef %3, i32 noundef %4, i32 noundef %5) #1 {
  %7 = alloca ptr, align 8
  %8 = alloca ptr, align 8
  %9 = alloca ptr, align 8
  %10 = alloca ptr, align 8
  %11 = alloca i32, align 4
  %12 = alloca i32, align 4
  %13 = alloca ptr, align 8
  %14 = alloca ptr, align 8
  %15 = alloca i32, align 4
  store ptr %0, ptr %7, align 8, !tbaa !4
  store ptr %1, ptr %8, align 8, !tbaa !39
  store ptr %2, ptr %9, align 8, !tbaa !39
  store ptr %3, ptr %10, align 8, !tbaa !39
  store i32 %4, ptr %11, align 4, !tbaa !33
  store i32 %5, ptr %12, align 4, !tbaa !33
  call void @llvm.lifetime.start.p0(i64 8, ptr %13) #10
  %16 = load ptr, ptr %7, align 8, !tbaa !4
  %17 = getelementptr inbounds nuw %struct.AVFilterContext, ptr %16, i32 0, i32 9
  %18 = load ptr, ptr %17, align 8, !tbaa !9
  store ptr %18, ptr %13, align 8, !tbaa !22
  call void @llvm.lifetime.start.p0(i64 8, ptr %14) #10
  %19 = load ptr, ptr %13, align 8, !tbaa !22
  %20 = getelementptr inbounds nuw %struct.AudioDRCContext, ptr %19, i32 0, i32 3
  %21 = load ptr, ptr %20, align 8, !tbaa !40
  %22 = call noalias ptr @av_strdup(ptr noundef %21)
  store ptr %22, ptr %14, align 8, !tbaa !39
  call void @llvm.lifetime.start.p0(i64 4, ptr %15) #10
  %23 = load ptr, ptr %7, align 8, !tbaa !4
  %24 = load ptr, ptr %8, align 8, !tbaa !39
  %25 = load ptr, ptr %9, align 8, !tbaa !39
  %26 = load ptr, ptr %10, align 8, !tbaa !39
  %27 = load i32, ptr %11, align 4, !tbaa !33
  %28 = load i32, ptr %12, align 4, !tbaa !33
  %29 = call i32 @ff_filter_process_command(ptr noundef %23, ptr noundef %24, ptr noundef %25, ptr noundef %26, i32 noundef %27, i32 noundef %28)
  store i32 %29, ptr %15, align 4, !tbaa !33
  %30 = load i32, ptr %15, align 4, !tbaa !33
  %31 = icmp sge i32 %30, 0
  br i1 %31, label %32, label %47

32:                                               ; preds = %6
  %33 = load ptr, ptr %14, align 8, !tbaa !39
  %34 = load ptr, ptr %13, align 8, !tbaa !22
  %35 = getelementptr inbounds nuw %struct.AudioDRCContext, ptr %34, i32 0, i32 3
  %36 = load ptr, ptr %35, align 8, !tbaa !40
  %37 = call i32 @strcmp(ptr noundef %33, ptr noundef %36) #11
  %38 = icmp ne i32 %37, 0
  br i1 %38, label %39, label %47

39:                                               ; preds = %32
  %40 = load ptr, ptr %13, align 8, !tbaa !22
  %41 = getelementptr inbounds nuw %struct.AudioDRCContext, ptr %40, i32 0, i32 28
  %42 = load ptr, ptr %13, align 8, !tbaa !22
  %43 = getelementptr inbounds nuw %struct.AudioDRCContext, ptr %42, i32 0, i32 3
  %44 = load ptr, ptr %43, align 8, !tbaa !40
  %45 = load ptr, ptr %7, align 8, !tbaa !4
  %46 = call i32 @av_expr_parse(ptr noundef %41, ptr noundef %44, ptr noundef @var_names, ptr noundef null, ptr noundef null, ptr noundef null, ptr noundef null, i32 noundef 0, ptr noundef %45)
  store i32 %46, ptr %15, align 4, !tbaa !33
  br label %47

47:                                               ; preds = %39, %32, %6
  %48 = load ptr, ptr %14, align 8, !tbaa !39
  call void @av_free(ptr noundef %48)
  %49 = load i32, ptr %15, align 4, !tbaa !33
  call void @llvm.lifetime.end.p0(i64 4, ptr %15) #10
  call void @llvm.lifetime.end.p0(i64 8, ptr %14) #10
  call void @llvm.lifetime.end.p0(i64 8, ptr %13) #10
  ret i32 %49
}