; Function Attrs: nounwind uwtable
define internal i32 @process_command(ptr noundef %0, ptr noundef %1, ptr noundef %2, ptr noundef %3, i32 noundef %4, i32 noundef %5) #1 {
  %7 = getelementptr inbounds nuw i8, ptr %0, i64 72
  %8 = load ptr, ptr %7, align 8, !tbaa !4
  %9 = getelementptr inbounds nuw i8, ptr %8, i64 24
  %10 = load ptr, ptr %9, align 8, !tbaa !34
  %11 = tail call noalias ptr @av_strdup(ptr noundef %10) #10
  %12 = tail call i32 @ff_filter_process_command(ptr noundef %0, ptr noundef %1, ptr noundef %2, ptr noundef %3, i32 noundef %4, i32 noundef %5) #10
  %13 = icmp sgt i32 %12, -1
  br i1 %13, label %14, label %20

14:                                               ; preds = %6
  %15 = load ptr, ptr %9, align 8, !tbaa !34
  %16 = tail call i32 @strcmp(ptr noundef nonnull dereferenceable(1) %11, ptr noundef nonnull dereferenceable(1) %15) #11
  %.not = icmp eq i32 %16, 0
  br i1 %.not, label %20, label %17

17:                                               ; preds = %14
  %18 = getelementptr inbounds nuw i8, ptr %8, i64 224
  %19 = tail call i32 @av_expr_parse(ptr noundef nonnull %18, ptr noundef nonnull %15, ptr noundef nonnull @var_names, ptr noundef null, ptr noundef null, ptr noundef null, ptr noundef null, i32 noundef 0, ptr noundef nonnull %0) #10
  br label %20

20:                                               ; preds = %17, %14, %6
  %.0 = phi i32 [ %19, %17 ], [ %12, %14 ], [ %12, %6 ]
  tail call void @av_free(ptr noundef %11) #10
  ret i32 %.0
}